; Function Attrs: mustprogress nounwind uwtable
define dso_local void @_ZNK4llvm18AArch64InstPrinter12printRegNameERNS_11raw_ostreamENS_10MCRegisterEj(ptr noundef nonnull align 8 dereferenceable(58) %0, ptr noundef nonnull align 8 dereferenceable(48) %1, i32 %2, i32 noundef %3) local_unnamed_addr #1 align 2 {
  %5 = alloca %"class.llvm::MCInstPrinter::WithMarkup", align 8
  call void @_ZNK4llvm13MCInstPrinter6markupERNS_11raw_ostreamENS0_6MarkupE(ptr dead_on_unwind nonnull writable sret(%"class.llvm::MCInstPrinter::WithMarkup") align 8 %5, ptr noundef nonnull align 8 dereferenceable(58) %0, ptr noundef nonnull align 8 dereferenceable(48) %1, i32 noundef 1) #22
  switch i32 %3, label %6 [
    i32 0, label %7
    i32 1, label %_ZN4llvm9StringRefC2EPKc.exit.i.i
    i32 2, label %14
  ]

6:                                                ; preds = %4
  unreachable

7:                                                ; preds = %4
  %8 = add i32 %2, -1
  %9 = zext i32 %8 to i64
  %10 = getelementptr inbounds [701 x i16], ptr @_ZZN4llvm23AArch64AppleInstPrinter15getRegisterNameENS_10MCRegisterEjE24RegAsmOffsetNoRegAltName, i64 0, i64 %9
  %11 = load i16, ptr %10, align 2
  %12 = zext i16 %11 to i64
  %13 = getelementptr inbounds i8, ptr @_ZZN4llvm18AArch64InstPrinter15getRegisterNameENS_10MCRegisterEjE19AsmStrsNoRegAltName, i64 %12
  br label %_ZN4llvm9StringRefC2EPKc.exit.i.i

14:                                               ; preds = %4
  %15 = add i32 %2, -1
  %16 = zext i32 %15 to i64
  %17 = getelementptr inbounds [701 x i8], ptr @_ZZN4llvm23AArch64AppleInstPrinter15getRegisterNameENS_10MCRegisterEjE16RegAsmOffsetvreg, i64 0, i64 %16
  %18 = load i8, ptr %17, align 1
  %19 = zext i8 %18 to i64
  %20 = getelementptr inbounds i8, ptr @_ZZN4llvm18AArch64InstPrinter15getRegisterNameENS_10MCRegisterEjE11AsmStrsvreg, i64 %19
  br label %_ZN4llvm9StringRefC2EPKc.exit.i.i

_ZN4llvm9StringRefC2EPKc.exit.i.i:                ; preds = %14, %7, %4
  %.0.i = phi ptr [ %20, %14 ], [ %13, %7 ], [ @_ZZN4llvm18AArch64InstPrinter15getRegisterNameENS_10MCRegisterEjE13AsmStrsvlist1, %4 ]
  %21 = load ptr, ptr %5, align 8
  %22 = call noundef i64 @strlen(ptr noundef nonnull dereferenceable(1) %.0.i) #22
  %23 = getelementptr inbounds nuw i8, ptr %21, i64 24
  %24 = load ptr, ptr %23, align 8
  %25 = getelementptr inbounds nuw i8, ptr %21, i64 32
  %26 = load ptr, ptr %25, align 8
  %27 = ptrtoint ptr %24 to i64
  %28 = ptrtoint ptr %26 to i64
  %29 = sub i64 %27, %28
  %30 = icmp ugt i64 %22, %29
  br i1 %30, label %31, label %33

31:                                               ; preds = %_ZN4llvm9StringRefC2EPKc.exit.i.i
  %32 = call noundef nonnull align 8 dereferenceable(48) ptr @_ZN4llvm11raw_ostream5writeEPKcm(ptr noundef nonnull align 8 dereferenceable(48) %21, ptr noundef nonnull %.0.i, i64 noundef %22) #22
  br label %_ZN4llvm13MCInstPrinter10WithMarkuplsIPKcEERS1_RKT_.exit

33:                                               ; preds = %_ZN4llvm9StringRefC2EPKc.exit.i.i
  %.not.i2.i.i = icmp eq i64 %22, 0
  br i1 %.not.i2.i.i, label %_ZN4llvm13MCInstPrinter10WithMarkuplsIPKcEERS1_RKT_.exit, label %34

34:                                               ; preds = %33
  call void @llvm.memcpy.p0.p0.i64(ptr align 1 %26, ptr nonnull align 1 %.0.i, i64 %22, i1 false)
  %35 = load ptr, ptr %25, align 8
  %36 = getelementptr inbounds i8, ptr %35, i64 %22
  store ptr %36, ptr %25, align 8
  br label %_ZN4llvm13MCInstPrinter10WithMarkuplsIPKcEERS1_RKT_.exit

_ZN4llvm13MCInstPrinter10WithMarkuplsIPKcEERS1_RKT_.exit: ; preds = %31, %33, %34
  call void @_ZN4llvm13MCInstPrinter10WithMarkupD1Ev(ptr noundef nonnull align 8 dereferenceable(10) %5) #22
  ret void
}